; ModuleID = '27/1624.c'
source_filename = "27/1624.c"
target datalayout = "e-m:e-p270:32:32-p271:32:32-p272:64:64-i64:64-f80:128-n8:16:32:64-S128"
target triple = "x86_64-pc-linux-gnu"

@.str = private unnamed_addr constant [3 x i8] c"%d\00", align 1
@n = common dso_local global i32 0, align 4
@.str.1 = private unnamed_addr constant [10 x i8] c"%lf%lf%lf\00", align 1
@.str.2 = private unnamed_addr constant [19 x i8] c"x1=%.5lf;x2=%.5lf\0A\00", align 1
@.str.3 = private unnamed_addr constant [13 x i8] c"x1=x2=%.5lf\0A\00", align 1
@.str.4 = private unnamed_addr constant [37 x i8] c"x1=0.00000+%.5lfi;x2=0.00000-%.5lfi\0A\00", align 1
@.str.5 = private unnamed_addr constant [33 x i8] c"x1=%.5lf+%.5lfi;x2=%.5lf-%.5lfi\0A\00", align 1

; Function Attrs: noinline nounwind uwtable
define dso_local i32 @main() #0 {
  %1 = alloca i32, align 4
  %2 = alloca i32, align 4
  %3 = alloca double, align 8
  %4 = alloca double, align 8
  %5 = alloca double, align 8
  %6 = alloca double, align 8
  %7 = alloca double, align 8
  store i32 0, i32* %1, align 4
  %8 = call i32 (i8*, ...) @__isoc99_scanf(i8* getelementptr inbounds ([3 x i8], [3 x i8]* @.str, i64 0, i64 0), i32* @n)
  store i32 1, i32* %2, align 4
  br label %9

9:                                                ; preds = %122, %0
  %10 = load i32, i32* %2, align 4
  %11 = load i32, i32* @n, align 4
  %12 = icmp sle i32 %10, %11
  br i1 %12, label %13, label %125

13:                                               ; preds = %9
  store double 0.000000e+00, double* %6, align 8
  store double 0.000000e+00, double* %7, align 8
  %14 = call i32 (i8*, ...) @__isoc99_scanf(i8* getelementptr inbounds ([10 x i8], [10 x i8]* @.str.1, i64 0, i64 0), double* %3, double* %4, double* %5)
  %15 = load double, double* %4, align 8
  %16 = load double, double* %4, align 8
  %17 = fmul double %15, %16
  %18 = load double, double* %3, align 8
  %19 = fmul double 4.000000e+00, %18
  %20 = load double, double* %5, align 8
  %21 = fmul double %19, %20
  %22 = fsub double %17, %21
  %23 = fcmp ogt double %22, 0.000000e+00
  br i1 %23, label %24, label %58

24:                                               ; preds = %13
  %25 = load double, double* %4, align 8
  %26 = fmul double -1.000000e+00, %25
  %27 = load double, double* %4, align 8
  %28 = load double, double* %4, align 8
  %29 = fmul double %27, %28
  %30 = load double, double* %3, align 8
  %31 = fmul double 4.000000e+00, %30
  %32 = load double, double* %5, align 8
  %33 = fmul double %31, %32
  %34 = fsub double %29, %33
  %35 = call double @sqrt(double %34) #3
  %36 = fadd double %26, %35
  %37 = load double, double* %3, align 8
  %38 = fmul double 2.000000e+00, %37
  %39 = fdiv double %36, %38
  store double %39, double* %6, align 8
  %40 = load double, double* %4, align 8
  %41 = fmul double -1.000000e+00, %40
  %42 = load double, double* %4, align 8
  %43 = load double, double* %4, align 8
  %44 = fmul double %42, %43
  %45 = load double, double* %3, align 8
  %46 = fmul double 4.000000e+00, %45
  %47 = load double, double* %5, align 8
  %48 = fmul double %46, %47
  %49 = fsub double %44, %48
  %50 = call double @sqrt(double %49) #3
  %51 = fsub double %41, %50
  %52 = load double, double* %3, align 8
  %53 = fmul double 2.000000e+00, %52
  %54 = fdiv double %51, %53
  store double %54, double* %7, align 8
  %55 = load double, double* %6, align 8
  %56 = load double, double* %7, align 8
  %57 = call i32 (i8*, ...) @printf(i8* getelementptr inbounds ([19 x i8], [19 x i8]* @.str.2, i64 0, i64 0), double %55, double %56)
  br label %121

58:                                               ; preds = %13
  %59 = load double, double* %4, align 8
  %60 = load double, double* %4, align 8
  %61 = fmul double %59, %60
  %62 = load double, double* %3, align 8
  %63 = fmul double 4.000000e+00, %62
  %64 = load double, double* %5, align 8
  %65 = fmul double %63, %64
  %66 = fsub double %61, %65
  %67 = fcmp oeq double %66, 0.000000e+00
  br i1 %67, label %68, label %86

68:                                               ; preds = %58
  %69 = load double, double* %4, align 8
  %70 = fmul double -1.000000e+00, %69
  %71 = load double, double* %4, align 8
  %72 = load double, double* %4, align 8
  %73 = fmul double %71, %72
  %74 = load double, double* %3, align 8
  %75 = fmul double 4.000000e+00, %74
  %76 = load double, double* %5, align 8
  %77 = fmul double %75, %76
  %78 = fsub double %73, %77
  %79 = call double @sqrt(double %78) #3
  %80 = fadd double %70, %79
  %81 = load double, double* %3, align 8
  %82 = fmul double 2.000000e+00, %81
  %83 = fdiv double %80, %82
  store double %83, double* %6, align 8
  %84 = load double, double* %6, align 8
  %85 = call i32 (i8*, ...) @printf(i8* getelementptr inbounds ([13 x i8], [13 x i8]* @.str.3, i64 0, i64 0), double %84)
  br label %120

86:                                               ; preds = %58
  %87 = load double, double* %3, align 8
  %88 = fmul double 4.000000e+00, %87
  %89 = load double, double* %5, align 8
  %90 = fmul double %88, %89
  %91 = load double, double* %4, align 8
  %92 = load double, double* %4, align 8
  %93 = fmul double %91, %92
  %94 = fsub double %90, %93
  %95 = call double @sqrt(double %94) #3
  %96 = load double, double* %3, align 8
  %97 = fmul double 2.000000e+00, %96
  %98 = fdiv double %95, %97
  store double %98, double* %6, align 8
  %99 = load double, double* %4, align 8
  %100 = fcmp oeq double %99, 0.000000e+00
  br i1 %100, label %101, label %105

101:                                              ; preds = %86
  %102 = load double, double* %6, align 8
  %103 = load double, double* %6, align 8
  %104 = call i32 (i8*, ...) @printf(i8* getelementptr inbounds ([37 x i8], [37 x i8]* @.str.4, i64 0, i64 0), double %102, double %103)
  br label %119

105:                                              ; preds = %86
  %106 = load double, double* %4, align 8
  %107 = fmul double -1.000000e+00, %106
  %108 = load double, double* %3, align 8
  %109 = fmul double 2.000000e+00, %108
  %110 = fdiv double %107, %109
  %111 = load double, double* %6, align 8
  %112 = load double, double* %4, align 8
  %113 = fmul double -1.000000e+00, %112
  %114 = load double, double* %3, align 8
  %115 = fmul double 2.000000e+00, %114
  %116 = fdiv double %113, %115
  %117 = load double, double* %6, align 8
  %118 = call i32 (i8*, ...) @printf(i8* getelementptr inbounds ([33 x i8], [33 x i8]* @.str.5, i64 0, i64 0), double %110, double %111, double %116, double %117)
  br label %119

119:                                              ; preds = %105, %101
  br label %120

120:                                              ; preds = %119, %68
  br label %121

121:                                              ; preds = %120, %24
  br label %122

122:                                              ; preds = %121
  %123 = load i32, i32* %2, align 4
  %124 = add nsw i32 %123, 1
  store i32 %124, i32* %2, align 4
  br label %9

125:                                              ; preds = %9
  ret i32 0
}

declare dso_local i32 @__isoc99_scanf(i8*, ...) #1

; Function Attrs: nounwind
declare dso_local double @sqrt(double) #2

declare dso_local i32 @printf(i8*, ...) #1


!llvm.module.flags = !{!0}
!llvm.ident = !{!1}

!0 = !{i32 1, !"wchar_size", i32 4}
!1 = !{!"clang version 10.0.0-4ubuntu1 "}
